target datalayout = "e-m:e-p270:32:32-p271:32:32-p272:64:64-i64:64-i128:128-f80:128-n8:16:32:64-S128"
target triple = "x86_64-pc-linux-gnu"

%class.QPointF = type { double, double }
%class.QColor = type <{ i32, %"union.QColor::CT", [2 x i8] }>
%"union.QColor::CT" = type { %struct.anon }
%struct.anon = type { i16, i16, i16, i16, i16 }
%class.EqHandle = type { %class.Handle, i32, double, [3 x %class.QPointF], ptr, ptr, ptr }
%class.Handle = type { %class.QGraphicsObject, %class.QColor, i32, ptr }
%class.QGraphicsObject = type { %class.QObject, %class.QGraphicsItem }
%class.QObject = type { ptr, %class.QScopedPointer }
%class.QScopedPointer = type { ptr }
%class.QGraphicsItem = type { ptr, %class.QScopedPointer.4 }
%class.QScopedPointer.4 = type { ptr }
%class.QRect = type { i32, i32, i32, i32 }
%class.QBrush = type { %class.QScopedPointer.6 }
%class.QScopedPointer.6 = type { ptr }
%class.QLine = type { %class.QPoint, %class.QPoint }
%class.QPoint = type { i32, i32 }

; Function Attrs: mustprogress nounwind uwtable
define linkonce_odr void @_ZN6QPointC2Eii(ptr noundef nonnull align 4 dereferenceable(8) %0, i32 noundef %1, i32 noundef %2) unnamed_addr #1 comdat align 2 {
  %4 = alloca ptr, align 8
  %5 = alloca i32, align 4
  %6 = alloca i32, align 4
  store ptr %0, ptr %4, align 8
  store i32 %1, ptr %5, align 4
  store i32 %2, ptr %6, align 4
  %7 = load ptr, ptr %4, align 8
  %8 = getelementptr inbounds %class.QPoint, ptr %7, i32 0, i32 0
  %9 = load i32, ptr %5, align 4
  store i32 %9, ptr %8, align 4
  %10 = getelementptr inbounds %class.QPoint, ptr %7, i32 0, i32 1
  %11 = load i32, ptr %6, align 4
  store i32 %11, ptr %10, align 4
  ret void
}

; Function Attrs: mustprogress nounwind uwtable
define linkonce_odr void @_ZN5QRectC2Eiiii(ptr noundef nonnull align 4 dereferenceable(16) %0, i32 noundef %1, i32 noundef %2, i32 noundef %3, i32 noundef %4) unnamed_addr #1 comdat align 2 {
  %6 = alloca ptr, align 8
  %7 = alloca i32, align 4
  %8 = alloca i32, align 4
  %9 = alloca i32, align 4
  %10 = alloca i32, align 4
  store ptr %0, ptr %6, align 8
  store i32 %1, ptr %7, align 4
  store i32 %2, ptr %8, align 4
  store i32 %3, ptr %9, align 4
  store i32 %4, ptr %10, align 4
  %11 = load ptr, ptr %6, align 8
  %12 = getelementptr inbounds %class.QRect, ptr %11, i32 0, i32 0
  %13 = load i32, ptr %7, align 4
  store i32 %13, ptr %12, align 4
  %14 = getelementptr inbounds %class.QRect, ptr %11, i32 0, i32 1
  %15 = load i32, ptr %8, align 4
  store i32 %15, ptr %14, align 4
  %16 = getelementptr inbounds %class.QRect, ptr %11, i32 0, i32 2
  %17 = load i32, ptr %7, align 4
  %18 = load i32, ptr %9, align 4
  %19 = add nsw i32 %17, %18
  %20 = sub nsw i32 %19, 1
  store i32 %20, ptr %16, align 4
  %21 = getelementptr inbounds %class.QRect, ptr %11, i32 0, i32 3
  %22 = load i32, ptr %8, align 4
  %23 = load i32, ptr %10, align 4
  %24 = add nsw i32 %22, %23
  %25 = sub nsw i32 %24, 1
  store i32 %25, ptr %21, align 4
  ret void
}

; Function Attrs: mustprogress uwtable
define linkonce_odr void @_ZN5QLineC2Eiiii(ptr noundef nonnull align 4 dereferenceable(16) %0, i32 noundef %1, i32 noundef %2, i32 noundef %3, i32 noundef %4) unnamed_addr #0 comdat align 2 {
  %6 = alloca ptr, align 8
  %7 = alloca i32, align 4
  %8 = alloca i32, align 4
  %9 = alloca i32, align 4
  %10 = alloca i32, align 4
  store ptr %0, ptr %6, align 8
  store i32 %1, ptr %7, align 4
  store i32 %2, ptr %8, align 4
  store i32 %3, ptr %9, align 4
  store i32 %4, ptr %10, align 4
  %11 = load ptr, ptr %6, align 8
  %12 = getelementptr inbounds %class.QLine, ptr %11, i32 0, i32 0
  %13 = load i32, ptr %7, align 4
  %14 = load i32, ptr %8, align 4
  call void @_ZN6QPointC2Eii(ptr noundef nonnull align 4 dereferenceable(8) %12, i32 noundef %13, i32 noundef %14)
  %15 = getelementptr inbounds %class.QLine, ptr %11, i32 0, i32 1
  %16 = load i32, ptr %9, align 4
  %17 = load i32, ptr %10, align 4
  call void @_ZN6QPointC2Eii(ptr noundef nonnull align 4 dereferenceable(8) %15, i32 noundef %16, i32 noundef %17)
  ret void
}

; Function Attrs: mustprogress uwtable
define linkonce_odr void @_ZN8QPainter8drawRectEiiii(ptr noundef nonnull align 8 dereferenceable(8) %0, i32 noundef %1, i32 noundef %2, i32 noundef %3, i32 noundef %4) #0 comdat align 2 {
  %6 = alloca ptr, align 8
  %7 = alloca i32, align 4
  %8 = alloca i32, align 4
  %9 = alloca i32, align 4
  %10 = alloca i32, align 4
  %11 = alloca %class.QRect, align 4
  store ptr %0, ptr %6, align 8
  store i32 %1, ptr %7, align 4
  store i32 %2, ptr %8, align 4
  store i32 %3, ptr %9, align 4
  store i32 %4, ptr %10, align 4
  %12 = load ptr, ptr %6, align 8
  %13 = load i32, ptr %7, align 4
  %14 = load i32, ptr %8, align 4
  %15 = load i32, ptr %9, align 4
  %16 = load i32, ptr %10, align 4
  call void @_ZN5QRectC2Eiiii(ptr noundef nonnull align 4 dereferenceable(16) %11, i32 noundef %13, i32 noundef %14, i32 noundef %15, i32 noundef %16) #9
  call void @_ZN8QPainter9drawRectsEPK5QRecti(ptr noundef nonnull align 8 dereferenceable(8) %12, ptr noundef %11, i32 noundef 1)
  ret void
}

; Function Attrs: mustprogress uwtable
define linkonce_odr void @_ZN8QPainter8drawLineEiiii(ptr noundef nonnull align 8 dereferenceable(8) %0, i32 noundef %1, i32 noundef %2, i32 noundef %3, i32 noundef %4) #0 comdat align 2 {
  %6 = alloca ptr, align 8
  %7 = alloca i32, align 4
  %8 = alloca i32, align 4
  %9 = alloca i32, align 4
  %10 = alloca i32, align 4
  %11 = alloca %class.QLine, align 4
  store ptr %0, ptr %6, align 8
  store i32 %1, ptr %7, align 4
  store i32 %2, ptr %8, align 4
  store i32 %3, ptr %9, align 4
  store i32 %4, ptr %10, align 4
  %12 = load ptr, ptr %6, align 8
  %13 = load i32, ptr %7, align 4
  %14 = load i32, ptr %8, align 4
  %15 = load i32, ptr %9, align 4
  %16 = load i32, ptr %10, align 4
  call void @_ZN5QLineC2Eiiii(ptr noundef nonnull align 4 dereferenceable(16) %11, i32 noundef %13, i32 noundef %14, i32 noundef %15, i32 noundef %16)
  call void @_ZN8QPainter9drawLinesEPK5QLinei(ptr noundef nonnull align 8 dereferenceable(8) %12, ptr noundef %11, i32 noundef 1)
  ret void
}

; Function Attrs: mustprogress uwtable
define void @_ZN8EqHandle5paintEP8QPainterPK24QStyleOptionGraphicsItemP7QWidget(ptr noundef nonnull align 8 dereferenceable(152) %0, ptr noundef %1, ptr noundef %2, ptr noundef %3) unnamed_addr #0 align 2 personality ptr @__gxx_personality_v0 {
  %5 = alloca ptr, align 8
  %6 = alloca ptr, align 8
  %7 = alloca ptr, align 8
  %8 = alloca ptr, align 8
  %9 = alloca %class.QBrush, align 8
  %10 = alloca ptr, align 8
  %11 = alloca i32, align 4
  store ptr %0, ptr %5, align 8
  store ptr %1, ptr %6, align 8
  store ptr %2, ptr %7, align 8
  store ptr %3, ptr %8, align 8
  %12 = load ptr, ptr %5, align 8
  %13 = load ptr, ptr %6, align 8
  %14 = getelementptr inbounds %class.Handle, ptr %12, i32 0, i32 1
  call void @_ZN8QPainter6setPenERK6QColor(ptr noundef nonnull align 8 dereferenceable(8) %13, ptr noundef nonnull align 4 dereferenceable(14) %14)
  %15 = load ptr, ptr %6, align 8
  %16 = getelementptr inbounds %class.Handle, ptr %12, i32 0, i32 1
  call void @_ZN6QBrushC1ERK6QColorN2Qt10BrushStyleE(ptr noundef nonnull align 8 dereferenceable(8) %9, ptr noundef nonnull align 4 dereferenceable(14) %16, i32 noundef 1)
  invoke void @_ZN8QPainter8setBrushERK6QBrush(ptr noundef nonnull align 8 dereferenceable(8) %15, ptr noundef nonnull align 8 dereferenceable(8) %9)
          to label %17 unwind label %41

17:                                               ; preds = %4
  call void @_ZN6QBrushD1Ev(ptr noundef nonnull align 8 dereferenceable(8) %9) #9
  %18 = load ptr, ptr %6, align 8
  %19 = getelementptr inbounds %class.Handle, ptr %12, i32 0, i32 2
  %20 = load i32, ptr %19, align 8
  %21 = sub nsw i32 0, %20
  %22 = getelementptr inbounds %class.EqHandle, ptr %12, i32 0, i32 2
  %23 = load double, ptr %22, align 8
  %24 = fneg double %23
  %25 = fptosi double %24 to i32
  call void @_ZN8QPainter8drawLineEiiii(ptr noundef nonnull align 8 dereferenceable(8) %18, i32 noundef 0, i32 noundef %21, i32 noundef 0, i32 noundef %25)
  %26 = load ptr, ptr %6, align 8
  %27 = getelementptr inbounds %class.EqHandle, ptr %12, i32 0, i32 3
  %28 = getelementptr inbounds [3 x %class.QPointF], ptr %27, i64 0, i64 0
  call void @_ZN8QPainter11drawPolygonEPK7QPointFiN2Qt8FillRuleE(ptr noundef nonnull align 8 dereferenceable(8) %26, ptr noundef %28, i32 noundef 3, i32 noundef 0)
  %29 = load ptr, ptr %6, align 8
  %30 = getelementptr inbounds %class.Handle, ptr %12, i32 0, i32 2
  %31 = load i32, ptr %30, align 8
  %32 = sub nsw i32 0, %31
  %33 = sdiv i32 %32, 2
  %34 = getelementptr inbounds %class.Handle, ptr %12, i32 0, i32 2
  %35 = load i32, ptr %34, align 8
  %36 = sub nsw i32 0, %35
  %37 = getelementptr inbounds %class.Handle, ptr %12, i32 0, i32 2
  %38 = load i32, ptr %37, align 8
  %39 = getelementptr inbounds %class.Handle, ptr %12, i32 0, i32 2
  %40 = load i32, ptr %39, align 8
  call void @_ZN8QPainter8drawRectEiiii(ptr noundef nonnull align 8 dereferenceable(8) %29, i32 noundef %33, i32 noundef %36, i32 noundef %38, i32 noundef %40)
  ret void

41:                                               ; preds = %4
  %42 = landingpad { ptr, i32 }
          cleanup
  %43 = extractvalue { ptr, i32 } %42, 0
  store ptr %43, ptr %10, align 8
  %44 = extractvalue { ptr, i32 } %42, 1
  store i32 %44, ptr %11, align 4
  call void @_ZN6QBrushD1Ev(ptr noundef nonnull align 8 dereferenceable(8) %9) #9
  br label %45

45:                                               ; preds = %41
  %46 = load ptr, ptr %10, align 8
  %47 = load i32, ptr %11, align 4
  %48 = insertvalue { ptr, i32 } poison, ptr %46, 0
  %49 = insertvalue { ptr, i32 } %48, i32 %47, 1
  resume { ptr, i32 } %49
}