; Function Attrs: mustprogress uwtable
define void @_ZN8EqHandle5paintEP8QPainterPK24QStyleOptionGraphicsItemP7QWidget(ptr noundef nonnull align 8 dereferenceable(152) %0, ptr noundef nonnull %1, ptr nocapture readnone %2, ptr nocapture readnone %3) unnamed_addr #0 align 2 personality ptr @__gxx_personality_v0 {
  %5 = alloca %class.QRect, align 4
  %6 = alloca %class.QLine, align 4
  %7 = alloca %class.QBrush, align 8
  %8 = getelementptr inbounds i8, ptr %0, i64 32
  tail call void @_ZN8QPainter6setPenERK6QColor(ptr noundef nonnull align 8 dereferenceable(8) %1, ptr noundef nonnull align 4 dereferenceable(14) %8)
  call void @_ZN6QBrushC1ERK6QColorN2Qt10BrushStyleE(ptr noundef nonnull align 8 dereferenceable(8) %7, ptr noundef nonnull align 4 dereferenceable(14) %8, i32 noundef 1)
  invoke void @_ZN8QPainter8setBrushERK6QBrush(ptr noundef nonnull align 8 dereferenceable(8) %1, ptr noundef nonnull align 8 dereferenceable(8) %7)
          to label %9 unwind label %29

9:                                                ; preds = %4
  call void @_ZN6QBrushD1Ev(ptr noundef nonnull align 8 dereferenceable(8) %7) #14
  %10 = getelementptr inbounds i8, ptr %0, i64 48
  %11 = load i32, ptr %10, align 8
  %12 = sub nsw i32 0, %11
  %13 = getelementptr inbounds i8, ptr %0, i64 72
  %14 = load double, ptr %13, align 8
  %15 = fneg double %14
  %16 = fptosi double %15 to i32
  call void @llvm.lifetime.start.p0(i64 16, ptr nonnull %6)
  store i32 0, ptr %6, align 4
  %17 = getelementptr inbounds i8, ptr %6, i64 4
  store i32 %12, ptr %17, align 4
  %18 = getelementptr inbounds i8, ptr %6, i64 8
  store i32 0, ptr %18, align 4
  %19 = getelementptr inbounds i8, ptr %6, i64 12
  store i32 %16, ptr %19, align 4
  call void @_ZN8QPainter9drawLinesEPK5QLinei(ptr noundef nonnull align 8 dereferenceable(8) %1, ptr noundef nonnull %6, i32 noundef 1)
  call void @llvm.lifetime.end.p0(i64 16, ptr nonnull %6)
  %20 = getelementptr inbounds i8, ptr %0, i64 80
  call void @_ZN8QPainter11drawPolygonEPK7QPointFiN2Qt8FillRuleE(ptr noundef nonnull align 8 dereferenceable(8) %1, ptr noundef nonnull %20, i32 noundef 3, i32 noundef 0)
  %21 = load i32, ptr %10, align 8
  %22 = sub nsw i32 0, %21
  %23 = sdiv i32 %21, -2
  call void @llvm.lifetime.start.p0(i64 16, ptr nonnull %5)
  store i32 %23, ptr %5, align 4
  %24 = getelementptr inbounds i8, ptr %5, i64 4
  store i32 %22, ptr %24, align 4
  %25 = getelementptr inbounds i8, ptr %5, i64 8
  %26 = add i32 %21, -1
  %27 = add i32 %26, %23
  store i32 %27, ptr %25, align 4
  %28 = getelementptr inbounds i8, ptr %5, i64 12
  store i32 -1, ptr %28, align 4
  call void @_ZN8QPainter9drawRectsEPK5QRecti(ptr noundef nonnull align 8 dereferenceable(8) %1, ptr noundef nonnull %5, i32 noundef 1)
  call void @llvm.lifetime.end.p0(i64 16, ptr nonnull %5)
  ret void

29:                                               ; preds = %4
  %30 = landingpad { ptr, i32 }
          cleanup
  call void @_ZN6QBrushD1Ev(ptr noundef nonnull align 8 dereferenceable(8) %7) #14
  resume { ptr, i32 } %30
}